target datalayout = "e-m:e-p270:32:32-p271:32:32-p272:64:64-i64:64-i128:128-f80:128-n8:16:32:64-S128"
target triple = "x86_64-pc-linux-gnu"

%struct.AVCodecContext = type { ptr, i32, i32, ptr, i32, i32, ptr, ptr, ptr, i64, i32, i32, ptr, i32, %struct.AVRational, %struct.AVRational, %struct.AVRational, i32, i32, i32, i32, i32, %struct.AVRational, i32, i32, i32, i32, i32, i32, i32, i32, i32, i32, i32, ptr, ptr, i32, float, float, float, float, float, float, float, float, float, i32, i32, i32, i32, i32, i32, i32, i32, i32, i32, i32, i32, ptr, ptr, ptr, i32, i32, i32, i32, i32, i32, i32, i32, i32, i32, %struct.AVChannelLayout, i32, i32, i32, i32, i32, i32, i32, i32, ptr, i32, i32, i32, float, float, i32, i32, i32, i32, i32, ptr, i64, i64, float, float, i32, i32, ptr, ptr, i32, i32, i32, i32, i32, ptr, ptr, ptr, ptr, i32, i32, [8 x i64], i32, i32, i32, i32, i32, i32, i32, ptr, ptr, i32, i32, i32, i32, i32, i32, i32, i32, i32, i32, ptr, ptr, i32, i32, ptr, ptr, ptr, ptr, i32, i32, i64, i32, i32, i64, ptr, i64, ptr, i32, ptr, i32 }
%struct.AVRational = type { i32, i32 }
%struct.AVChannelLayout = type { i32, i32, %union.anon, ptr }
%union.anon = type { i64 }
%struct.DCAContext = type { ptr, ptr, %struct.DCACoreDecoder, %struct.DCAExssParser, %struct.DCAXllDecoder, %struct.DCALbrDecoder, %struct.DCADSPContext, ptr, ptr, i32, i32, i32, i32, i32, %struct.AVChannelLayout }
%struct.DCACoreDecoder = type { ptr, %struct.GetBitContext, %struct.GetBitContext, i32, i32, i32, i32, i32, i32, i32, i32, i32, i32, i32, i32, i32, i32, i32, i32, i32, i32, i32, i32, i32, i32, [7 x i8], [7 x i8], [7 x i8], [7 x i8], [7 x i8], [7 x i8], [7 x [10 x i8]], [7 x [10 x i32]], [16 x i8], [7 x [64 x i8]], [7 x [64 x i16]], [7 x [64 x i8]], [16 x [7 x [32 x i8]]], [7 x [32 x [2 x i32]]], [7 x i8], [7 x [64 x i32]], i32, i32, [24 x i32], i32, i32, i32, i32, i32, i32, i32, i32, [2 x i32], [12 x i32], i32, i32, i32, i32, i32, i32, i32, i32, i32, ptr, [7 x [64 x ptr]], i32, ptr, [7 x [32 x ptr]], ptr, [8 x i8], [7 x %struct.DCADSPData], ptr, %struct.DCADCTContext, [2 x ptr], [2 x ptr], %struct.SynthFilterContext, ptr, ptr, i32, ptr, [32 x ptr], i32, float, [32 x i32], i32, i32, i32, i32 }
%struct.GetBitContext = type { ptr, ptr, i32, i32, i32 }
%struct.DCADSPData = type { %union.anon.0, i32, [12 x i8] }
%union.anon.0 = type { %struct.anon }
%struct.anon = type { [1024 x float], [64 x float] }
%struct.DCADCTContext = type { [2 x ptr] }
%struct.SynthFilterContext = type { ptr, ptr, ptr, ptr }
%struct.DCAExssParser = type { ptr, %struct.GetBitContext, i32, i32, i32, i32, i32, i32, i32, i32, [4 x i32], [1 x %struct.DCAExssAsset] }
%struct.DCAExssAsset = type { i32, i32, i32, i32, i32, i32, i32, i32, i32, i32, i32, i32, i32, i32, i32, i32, i32, i32, i32, i32, i32, i32, i32, i32, i32, i32, i32, i32, i32, i32 }
%struct.DCAXllDecoder = type { ptr, %struct.GetBitContext, i32, i32, i32, i32, i32, i32, i32, i32, i32, i32, i32, i32, [8 x i8], [3 x %struct.DCAXllChSet], ptr, i32, i32, i32, i32, i32, i32, ptr, i32, i32, ptr, i32, i32, i32, [32 x ptr], [8 x i8] }
%struct.DCAXllChSet = type { i32, i32, i32, i32, i32, i32, i32, i32, i32, i32, i32, [128 x i32], [16 x i32], [16 x i32], i32, [8 x i32], i32, i32, [2 x %struct.DCAXllBand], i32, [8 x i32], [8 x i32], [8 x i32], [8 x i32], [8 x i32], [4 x i8], [8 x [8 x i32]], [3 x i32], [3 x ptr], [8 x i8] }
%struct.DCAXllBand = type { i32, [8 x i32], [4 x i32], [8 x i32], i32, [8 x i32], [8 x [16 x i32]], i32, i32, [8 x i32], [8 x i32], [8 x ptr], [8 x ptr] }
%struct.DCALbrDecoder = type { ptr, %struct.GetBitContext, i32, i32, i32, i32, i32, i32, i32, i32, i32, i32, i32, i32, i32, i32, i32, i32, i32, i32, i32, [3 x [32 x i8]], [32 x i8], [3 x [32 x i8]], [3 x [32 x i8]], [6 x i32], [6 x [12 x [8 x i8]]], [6 x [3 x [64 x i8]]], [6 x [28 x i8]], [6 x [28 x [8 x i8]]], [6 x i32], [6 x [32 x [8 x i8]]], [6 x [8 x [5 x i8]]], i8, [2 x [6 x [3 x [2 x [8 x float]]]]], [32 x float], [6 x [32 x ptr]], ptr, i32, [4 x i8], [6 x [128 x float]], [128 x float], [64 x float], [5 x [2 x float]], float, [6 x i8], [5 x [32 x [2 x i16]]], [512 x %struct.DCALbrTone], i32, ptr, ptr, ptr, ptr, [8 x i8] }
%struct.DCALbrTone = type { i8, i8, i8, i8, [6 x i8], [6 x i8] }
%struct.DCADSPContext = type { ptr, ptr, [2 x ptr], ptr, [2 x ptr], ptr, ptr, [2 x ptr], ptr, ptr, ptr, ptr, ptr, ptr, ptr, ptr, ptr }

; Function Attrs: cold nounwind optsize uwtable
define internal i32 @dcadec_close(ptr noundef %0) #5 {
  %2 = alloca ptr, align 8
  %3 = alloca ptr, align 8
  store ptr %0, ptr %2, align 8, !tbaa !4
  call void @llvm.lifetime.start.p0(i64 8, ptr %3) #8
  %4 = load ptr, ptr %2, align 8, !tbaa !4
  %5 = getelementptr inbounds nuw %struct.AVCodecContext, ptr %4, i32 0, i32 6
  %6 = load ptr, ptr %5, align 8, !tbaa !13
  store ptr %6, ptr %3, align 8, !tbaa !31
  %7 = load ptr, ptr %3, align 8, !tbaa !31
  %8 = getelementptr inbounds nuw %struct.DCAContext, ptr %7, i32 0, i32 2
  call void @ff_dca_core_close(ptr noundef %8) #11
  %9 = load ptr, ptr %3, align 8, !tbaa !31
  %10 = getelementptr inbounds nuw %struct.DCAContext, ptr %9, i32 0, i32 4
  call void @ff_dca_xll_close(ptr noundef %10) #11
  %11 = load ptr, ptr %3, align 8, !tbaa !31
  %12 = getelementptr inbounds nuw %struct.DCAContext, ptr %11, i32 0, i32 5
  call void @ff_dca_lbr_close(ptr noundef %12) #11
  %13 = load ptr, ptr %3, align 8, !tbaa !31
  %14 = getelementptr inbounds nuw %struct.DCAContext, ptr %13, i32 0, i32 8
  call void @av_freep(ptr noundef %14)
  %15 = load ptr, ptr %3, align 8, !tbaa !31
  %16 = getelementptr inbounds nuw %struct.DCAContext, ptr %15, i32 0, i32 9
  store i32 0, ptr %16, align 16, !tbaa !96
  call void @llvm.lifetime.end.p0(i64 8, ptr %3) #8
  ret i32 0
}