; Function Attrs: cold nounwind optsize uwtable
define internal noundef i32 @dcadec_close(ptr noundef readonly captures(none) %0) #4 {
  %2 = getelementptr inbounds nuw i8, ptr %0, i64 32
  %3 = load ptr, ptr %2, align 8, !tbaa !4
  %4 = getelementptr inbounds nuw i8, ptr %3, i64 16
  tail call void @ff_dca_core_close(ptr noundef nonnull %4) #9
  %5 = getelementptr inbounds nuw i8, ptr %3, i64 46512
  tail call void @ff_dca_xll_close(ptr noundef nonnull %5) #9
  %6 = getelementptr inbounds nuw i8, ptr %3, i64 55536
  tail call void @ff_dca_lbr_close(ptr noundef nonnull %6) #9
  %7 = getelementptr inbounds nuw i8, ptr %3, i64 77960
  tail call void @av_freep(ptr noundef nonnull %7) #7
  %8 = getelementptr inbounds nuw i8, ptr %3, i64 77968
  store i32 0, ptr %8, align 16, !tbaa !80
  ret i32 0
}